target datalayout = "e-m:e-p270:32:32-p271:32:32-p272:64:64-i64:64-i128:128-f80:128-n8:16:32:64-S128"
target triple = "x86_64-pc-linux-gnu"

%struct.BEValue = type { i8, i32, ptr, ptr, ptr }

; Function Attrs: nounwind uwtable
define dso_local void @llvm_emit_int_comp(ptr noundef %0, ptr noundef %1, ptr noundef %2, ptr noundef %3, i32 noundef %4) #0 {
  %6 = alloca ptr, align 8
  %7 = alloca ptr, align 8
  %8 = alloca ptr, align 8
  %9 = alloca ptr, align 8
  %10 = alloca i32, align 4
  store ptr %0, ptr %6, align 8
  store ptr %1, ptr %7, align 8
  store ptr %2, ptr %8, align 8
  store ptr %3, ptr %9, align 8
  store i32 %4, ptr %10, align 4
  %11 = load ptr, ptr %6, align 8
  %12 = load ptr, ptr %8, align 8
  call void @llvm_value_rvalue(ptr noundef %11, ptr noundef %12)
  %13 = load ptr, ptr %6, align 8
  %14 = load ptr, ptr %9, align 8
  call void @llvm_value_rvalue(ptr noundef %13, ptr noundef %14)
  %15 = load ptr, ptr %6, align 8
  %16 = load ptr, ptr %7, align 8
  %17 = load ptr, ptr %8, align 8
  %18 = getelementptr inbounds %struct.BEValue, ptr %17, i32 0, i32 2
  %19 = load ptr, ptr %18, align 8
  %20 = load ptr, ptr %9, align 8
  %21 = getelementptr inbounds %struct.BEValue, ptr %20, i32 0, i32 2
  %22 = load ptr, ptr %21, align 8
  %23 = load ptr, ptr %8, align 8
  %24 = getelementptr inbounds %struct.BEValue, ptr %23, i32 0, i32 3
  %25 = load ptr, ptr %24, align 8
  %26 = load ptr, ptr %9, align 8
  %27 = getelementptr inbounds %struct.BEValue, ptr %26, i32 0, i32 3
  %28 = load ptr, ptr %27, align 8
  %29 = load i32, ptr %10, align 4
  call void @llvm_emit_int_comp_raw(ptr noundef %15, ptr noundef %16, ptr noundef %19, ptr noundef %22, ptr noundef %25, ptr noundef %28, i32 noundef %29)
  ret void
}