; Function Attrs: nounwind uwtable
define dso_local void @llvm_emit_int_comp(ptr noundef %0, ptr noundef %1, ptr noundef %2, ptr noundef %3, i32 noundef %4) local_unnamed_addr #0 {
  tail call void @llvm_value_rvalue(ptr noundef %0, ptr noundef %2) #10
  tail call void @llvm_value_rvalue(ptr noundef %0, ptr noundef %3) #10
  %6 = getelementptr inbounds i8, ptr %2, i64 8
  %7 = load ptr, ptr %6, align 8
  %8 = getelementptr inbounds i8, ptr %3, i64 8
  %9 = load ptr, ptr %8, align 8
  %10 = getelementptr inbounds i8, ptr %2, i64 16
  %11 = load ptr, ptr %10, align 8
  %12 = getelementptr inbounds i8, ptr %3, i64 16
  %13 = load ptr, ptr %12, align 8
  tail call void @llvm_emit_int_comp_raw(ptr noundef %0, ptr noundef %1, ptr noundef %7, ptr noundef %9, ptr noundef %11, ptr noundef %13, i32 noundef %4)
  ret void
}